target datalayout = "e-m:e-p270:32:32-p271:32:32-p272:64:64-i64:64-i128:128-f80:128-n8:16:32:64-S128"
target triple = "x86_64-pc-linux-gnu"

%struct._zend_object_iterator_funcs = type { ptr, ptr, ptr, ptr, ptr, ptr, ptr, ptr }
%struct._nodeIterator = type { i32, i32, ptr }
%struct.php_dom_iterator = type { %struct._zend_object_iterator, %struct._zval_struct, i32, %struct.php_libxml_cache_tag }
%struct._zend_object_iterator = type { %struct._zend_object, %struct._zval_struct, ptr, i64 }
%struct._zend_object = type { %struct._zend_refcounted_h, i32, ptr, ptr, ptr, [1 x %struct._zval_struct] }
%struct._zend_refcounted_h = type { i32, %union.anon }
%union.anon = type { i32 }
%struct._zval_struct = type { %union._zend_value, %union.anon.0, %union.anon.3 }
%union._zend_value = type { i64 }
%union.anon.0 = type { i32 }
%union.anon.3 = type { i32 }
%struct.php_libxml_cache_tag = type { i64 }
%struct._dom_object = type { ptr, ptr, ptr, %struct._zend_object }
%struct._dom_nnodemap_object = type { ptr, %struct._zval_struct, i32, i32, ptr, ptr, ptr, %struct.php_libxml_cache_tag, ptr, i32, i8 }
%struct._zend_object_handlers = type { i32, ptr, ptr, ptr, ptr, ptr, ptr, ptr, ptr, ptr, ptr, ptr, ptr, ptr, ptr, ptr, ptr, ptr, ptr, ptr, ptr, ptr, ptr, ptr, ptr }
%struct._zend_refcounted = type { %struct._zend_refcounted_h }
%struct._xmlNode = type { ptr, i32, ptr, ptr, ptr, ptr, ptr, ptr, ptr, ptr, ptr, ptr, ptr, ptr, i16, i16 }

@.str = private unnamed_addr constant [53 x i8] c"An iterator cannot be used with foreach by reference\00", align 1
@php_dom_iterator_funcs = internal constant %struct._zend_object_iterator_funcs { ptr @php_dom_iterator_dtor, ptr @php_dom_iterator_valid, ptr @php_dom_iterator_current_data, ptr @php_dom_iterator_current_key, ptr @php_dom_iterator_move_forward, ptr null, ptr null, ptr null }, align 8

; Function Attrs: nounwind uwtable
define hidden ptr @php_dom_libxml_hash_iter(ptr noundef %0, i32 noundef %1) #0 {
  %3 = alloca ptr, align 8
  %4 = alloca ptr, align 8
  %5 = alloca i32, align 4
  %6 = alloca ptr, align 8
  %7 = alloca ptr, align 8
  %8 = alloca i32, align 4
  store ptr %0, ptr %4, align 8
  store i32 %1, ptr %5, align 4
  store ptr null, ptr %6, align 8
  %9 = load ptr, ptr %4, align 8
  %10 = call i32 @xmlHashSize(ptr noundef %9)
  store i32 %10, ptr %8, align 4
  %11 = icmp sgt i32 %10, 0
  br i1 %11, label %12, label %32

12:                                               ; preds = %2
  %13 = load i32, ptr %5, align 4
  %14 = load i32, ptr %8, align 4
  %15 = icmp slt i32 %13, %14
  br i1 %15, label %16, label %32

16:                                               ; preds = %12
  %17 = call noalias ptr @_emalloc_16()
  store ptr %17, ptr %7, align 8
  %18 = load ptr, ptr %7, align 8
  %19 = getelementptr inbounds %struct._nodeIterator, ptr %18, i32 0, i32 0
  store i32 0, ptr %19, align 8
  %20 = load i32, ptr %5, align 4
  %21 = load ptr, ptr %7, align 8
  %22 = getelementptr inbounds %struct._nodeIterator, ptr %21, i32 0, i32 1
  store i32 %20, ptr %22, align 4
  %23 = load ptr, ptr %7, align 8
  %24 = getelementptr inbounds %struct._nodeIterator, ptr %23, i32 0, i32 2
  store ptr null, ptr %24, align 8
  %25 = load ptr, ptr %4, align 8
  %26 = load ptr, ptr %7, align 8
  call void @xmlHashScan(ptr noundef %25, ptr noundef @itemHashScanner, ptr noundef %26)
  %27 = load ptr, ptr %7, align 8
  %28 = getelementptr inbounds %struct._nodeIterator, ptr %27, i32 0, i32 2
  %29 = load ptr, ptr %28, align 8
  store ptr %29, ptr %6, align 8
  %30 = load ptr, ptr %7, align 8
  call void @_efree(ptr noundef %30)
  %31 = load ptr, ptr %6, align 8
  store ptr %31, ptr %3, align 8
  br label %33

32:                                               ; preds = %12, %2
  store ptr null, ptr %3, align 8
  br label %33

33:                                               ; preds = %32, %16
  %34 = load ptr, ptr %3, align 8
  ret ptr %34
}

; Function Attrs: nounwind uwtable
define internal ptr @php_dom_obj_from_obj(ptr noundef %0) #0 {
  %2 = alloca ptr, align 8
  store ptr %0, ptr %2, align 8
  %3 = load ptr, ptr %2, align 8
  %4 = getelementptr inbounds i8, ptr %3, i64 -24
  ret ptr %4
}

; Function Attrs: nounwind uwtable
define hidden ptr @php_dom_get_iterator(ptr noundef %0, ptr noundef %1, i32 noundef %2) #0 {
  %4 = alloca ptr, align 8
  %5 = alloca ptr, align 8
  %6 = alloca ptr, align 8
  %7 = alloca ptr, align 8
  %8 = alloca ptr, align 8
  %9 = alloca ptr, align 8
  %10 = alloca ptr, align 8
  %11 = alloca i32, align 4
  %12 = alloca ptr, align 8
  %13 = alloca ptr, align 8
  %14 = alloca ptr, align 8
  %15 = alloca i32, align 4
  %16 = alloca ptr, align 8
  %17 = alloca ptr, align 8
  %18 = alloca ptr, align 8
  %19 = alloca ptr, align 8
  %20 = alloca ptr, align 8
  %21 = alloca ptr, align 8
  %22 = alloca ptr, align 8
  %23 = alloca ptr, align 8
  %24 = alloca i32, align 4
  %25 = alloca ptr, align 8
  %26 = alloca ptr, align 8
  store ptr %0, ptr %9, align 8
  store ptr %1, ptr %10, align 8
  store i32 %2, ptr %11, align 4
  store ptr null, ptr %14, align 8
  store i32 0, ptr %15, align 4
  %27 = load i32, ptr %11, align 4
  %28 = icmp ne i32 %27, 0
  br i1 %28, label %29, label %30

29:                                               ; preds = %3
  call void (ptr, ptr, ...) @zend_throw_error(ptr noundef null, ptr noundef @.str)
  store ptr null, ptr %8, align 8
  br label %260

30:                                               ; preds = %3
  %31 = call noalias ptr @_emalloc_128()
  store ptr %31, ptr %18, align 8
  %32 = load ptr, ptr %18, align 8
  %33 = getelementptr inbounds %struct.php_dom_iterator, ptr %32, i32 0, i32 0
  call void @zend_iterator_init(ptr noundef %33)
  %34 = load ptr, ptr %18, align 8
  %35 = getelementptr inbounds %struct.php_dom_iterator, ptr %34, i32 0, i32 3
  %36 = getelementptr inbounds %struct.php_libxml_cache_tag, ptr %35, i32 0, i32 0
  store i64 0, ptr %36, align 8
  br label %37

37:                                               ; preds = %30
  %38 = load ptr, ptr %18, align 8
  %39 = getelementptr inbounds %struct.php_dom_iterator, ptr %38, i32 0, i32 0
  %40 = getelementptr inbounds %struct._zend_object_iterator, ptr %39, i32 0, i32 1
  store ptr %40, ptr %19, align 8
  %41 = load ptr, ptr %10, align 8
  %42 = getelementptr inbounds %struct._zval_struct, ptr %41, i32 0, i32 0
  %43 = load ptr, ptr %42, align 8
  store ptr %43, ptr %20, align 8
  %44 = load ptr, ptr %20, align 8
  %45 = getelementptr inbounds %struct._zend_object, ptr %44, i32 0, i32 0
  store ptr %45, ptr %6, align 8
  %46 = load ptr, ptr %6, align 8
  %47 = load i32, ptr %46, align 4
  %48 = add i32 %47, 1
  store i32 %48, ptr %46, align 4
  %49 = load ptr, ptr %20, align 8
  %50 = load ptr, ptr %19, align 8
  %51 = getelementptr inbounds %struct._zval_struct, ptr %50, i32 0, i32 0
  store ptr %49, ptr %51, align 8
  %52 = load ptr, ptr %19, align 8
  %53 = getelementptr inbounds %struct._zval_struct, ptr %52, i32 0, i32 1
  store i32 776, ptr %53, align 8
  br label %54

54:                                               ; preds = %37
  %55 = load ptr, ptr %18, align 8
  %56 = getelementptr inbounds %struct.php_dom_iterator, ptr %55, i32 0, i32 0
  %57 = getelementptr inbounds %struct._zend_object_iterator, ptr %56, i32 0, i32 2
  store ptr @php_dom_iterator_funcs, ptr %57, align 8
  br label %58

58:                                               ; preds = %54
  %59 = load ptr, ptr %18, align 8
  %60 = getelementptr inbounds %struct.php_dom_iterator, ptr %59, i32 0, i32 1
  %61 = getelementptr inbounds %struct._zval_struct, ptr %60, i32 0, i32 1
  store i32 0, ptr %61, align 8
  br label %62

62:                                               ; preds = %58
  %63 = load ptr, ptr %10, align 8
  %64 = getelementptr inbounds %struct._zval_struct, ptr %63, i32 0, i32 0
  %65 = load ptr, ptr %64, align 8
  %66 = call ptr @php_dom_obj_from_obj(ptr noundef %65)
  store ptr %66, ptr %12, align 8
  %67 = load ptr, ptr %12, align 8
  %68 = getelementptr inbounds %struct._dom_object, ptr %67, i32 0, i32 0
  %69 = load ptr, ptr %68, align 8
  store ptr %69, ptr %13, align 8
  %70 = load ptr, ptr %13, align 8
  %71 = icmp ne ptr %70, null
  br i1 %71, label %72, label %245

72:                                               ; preds = %62
  %73 = load ptr, ptr %13, align 8
  %74 = getelementptr inbounds %struct._dom_nnodemap_object, ptr %73, i32 0, i32 2
  %75 = load i32, ptr %74, align 8
  %76 = icmp ne i32 %75, 6
  br i1 %76, label %77, label %228

77:                                               ; preds = %72
  %78 = load ptr, ptr %13, align 8
  %79 = getelementptr inbounds %struct._dom_nnodemap_object, ptr %78, i32 0, i32 2
  %80 = load i32, ptr %79, align 8
  %81 = icmp ne i32 %80, 12
  br i1 %81, label %82, label %228

82:                                               ; preds = %77
  %83 = load ptr, ptr %13, align 8
  %84 = getelementptr inbounds %struct._dom_nnodemap_object, ptr %83, i32 0, i32 2
  %85 = load i32, ptr %84, align 8
  %86 = icmp eq i32 %85, 19
  br i1 %86, label %87, label %166

87:                                               ; preds = %82
  %88 = load ptr, ptr %13, align 8
  %89 = getelementptr inbounds %struct._dom_nnodemap_object, ptr %88, i32 0, i32 1
  store ptr %89, ptr %4, align 8
  %90 = load ptr, ptr %4, align 8
  %91 = getelementptr inbounds %struct._zval_struct, ptr %90, i32 0, i32 1
  %92 = load i8, ptr %91, align 8
  %93 = zext i8 %92 to i32
  %94 = icmp eq i32 %93, 7
  br i1 %94, label %95, label %100

95:                                               ; preds = %87
  %96 = load ptr, ptr %13, align 8
  %97 = getelementptr inbounds %struct._dom_nnodemap_object, ptr %96, i32 0, i32 1
  %98 = getelementptr inbounds %struct._zval_struct, ptr %97, i32 0, i32 0
  %99 = load ptr, ptr %98, align 8
  br label %125

100:                                              ; preds = %87
  %101 = load ptr, ptr %13, align 8
  %102 = getelementptr inbounds %struct._dom_nnodemap_object, ptr %101, i32 0, i32 1
  store ptr %102, ptr %5, align 8
  %103 = load ptr, ptr %5, align 8
  %104 = getelementptr inbounds %struct._zval_struct, ptr %103, i32 0, i32 1
  %105 = load i8, ptr %104, align 8
  %106 = zext i8 %105 to i32
  %107 = icmp eq i32 %106, 8
  br i1 %107, label %108, label %122

108:                                              ; preds = %100
  %109 = load ptr, ptr %13, align 8
  %110 = getelementptr inbounds %struct._dom_nnodemap_object, ptr %109, i32 0, i32 1
  %111 = getelementptr inbounds %struct._zval_struct, ptr %110, i32 0, i32 0
  %112 = load ptr, ptr %111, align 8
  %113 = getelementptr inbounds %struct._zend_object, ptr %112, i32 0, i32 3
  %114 = load ptr, ptr %113, align 8
  %115 = getelementptr inbounds %struct._zend_object_handlers, ptr %114, i32 0, i32 13
  %116 = load ptr, ptr %115, align 8
  %117 = load ptr, ptr %13, align 8
  %118 = getelementptr inbounds %struct._dom_nnodemap_object, ptr %117, i32 0, i32 1
  %119 = getelementptr inbounds %struct._zval_struct, ptr %118, i32 0, i32 0
  %120 = load ptr, ptr %119, align 8
  %121 = call ptr %116(ptr noundef %120)
  br label %123

122:                                              ; preds = %100
  br label %123

123:                                              ; preds = %122, %108
  %124 = phi ptr [ %121, %108 ], [ null, %122 ]
  br label %125

125:                                              ; preds = %123, %95
  %126 = phi ptr [ %99, %95 ], [ %124, %123 ]
  store ptr %126, ptr %16, align 8
  %127 = load ptr, ptr %16, align 8
  %128 = load ptr, ptr %18, align 8
  %129 = getelementptr inbounds %struct.php_dom_iterator, ptr %128, i32 0, i32 2
  call void @zend_hash_internal_pointer_reset_ex(ptr noundef %127, ptr noundef %129)
  %130 = load ptr, ptr %16, align 8
  %131 = load ptr, ptr %18, align 8
  %132 = getelementptr inbounds %struct.php_dom_iterator, ptr %131, i32 0, i32 2
  %133 = call ptr @zend_hash_get_current_data_ex(ptr noundef %130, ptr noundef %132)
  store ptr %133, ptr %17, align 8
  %134 = icmp ne ptr %133, null
  br i1 %134, label %135, label %165

135:                                              ; preds = %125
  br label %136

136:                                              ; preds = %135
  %137 = load ptr, ptr %18, align 8
  %138 = getelementptr inbounds %struct.php_dom_iterator, ptr %137, i32 0, i32 1
  store ptr %138, ptr %21, align 8
  %139 = load ptr, ptr %17, align 8
  store ptr %139, ptr %22, align 8
  %140 = load ptr, ptr %22, align 8
  %141 = getelementptr inbounds %struct._zval_struct, ptr %140, i32 0, i32 0
  %142 = load ptr, ptr %141, align 8
  store ptr %142, ptr %23, align 8
  %143 = load ptr, ptr %22, align 8
  %144 = getelementptr inbounds %struct._zval_struct, ptr %143, i32 0, i32 1
  %145 = load i32, ptr %144, align 8
  store i32 %145, ptr %24, align 4
  br label %146

146:                                              ; preds = %136
  %147 = load ptr, ptr %23, align 8
  %148 = load ptr, ptr %21, align 8
  %149 = getelementptr inbounds %struct._zval_struct, ptr %148, i32 0, i32 0
  store ptr %147, ptr %149, align 8
  %150 = load i32, ptr %24, align 4
  %151 = load ptr, ptr %21, align 8
  %152 = getelementptr inbounds %struct._zval_struct, ptr %151, i32 0, i32 1
  store i32 %150, ptr %152, align 8
  br label %153

153:                                              ; preds = %146
  %154 = load i32, ptr %24, align 4
  %155 = and i32 %154, 65280
  %156 = icmp ne i32 %155, 0
  br i1 %156, label %157, label %163

157:                                              ; preds = %153
  %158 = load ptr, ptr %23, align 8
  %159 = getelementptr inbounds %struct._zend_refcounted, ptr %158, i32 0, i32 0
  store ptr %159, ptr %7, align 8
  %160 = load ptr, ptr %7, align 8
  %161 = load i32, ptr %160, align 4
  %162 = add i32 %161, 1
  store i32 %162, ptr %160, align 4
  br label %163

163:                                              ; preds = %157, %153
  br label %164

164:                                              ; preds = %163
  br label %165

165:                                              ; preds = %164, %125
  br label %227

166:                                              ; preds = %82
  %167 = load ptr, ptr %13, align 8
  %168 = getelementptr inbounds %struct._dom_nnodemap_object, ptr %167, i32 0, i32 0
  %169 = load ptr, ptr %168, align 8
  %170 = call ptr @dom_object_get_node(ptr noundef %169)
  store ptr %170, ptr %25, align 8
  %171 = load ptr, ptr %25, align 8
  %172 = icmp ne ptr %171, null
  br i1 %172, label %174, label %173

173:                                              ; preds = %166
  br label %246

174:                                              ; preds = %166
  %175 = load ptr, ptr %13, align 8
  %176 = getelementptr inbounds %struct._dom_nnodemap_object, ptr %175, i32 0, i32 2
  %177 = load i32, ptr %176, align 8
  %178 = icmp eq i32 %177, 2
  br i1 %178, label %184, label %179

179:                                              ; preds = %174
  %180 = load ptr, ptr %13, align 8
  %181 = getelementptr inbounds %struct._dom_nnodemap_object, ptr %180, i32 0, i32 2
  %182 = load i32, ptr %181, align 8
  %183 = icmp eq i32 %182, 1
  br i1 %183, label %184, label %198

184:                                              ; preds = %179, %174
  %185 = load ptr, ptr %13, align 8
  %186 = getelementptr inbounds %struct._dom_nnodemap_object, ptr %185, i32 0, i32 2
  %187 = load i32, ptr %186, align 8
  %188 = icmp eq i32 %187, 2
  br i1 %188, label %189, label %193

189:                                              ; preds = %184
  %190 = load ptr, ptr %25, align 8
  %191 = getelementptr inbounds %struct._xmlNode, ptr %190, i32 0, i32 11
  %192 = load ptr, ptr %191, align 8
  store ptr %192, ptr %14, align 8
  br label %197

193:                                              ; preds = %184
  %194 = load ptr, ptr %25, align 8
  %195 = getelementptr inbounds %struct._xmlNode, ptr %194, i32 0, i32 3
  %196 = load ptr, ptr %195, align 8
  store ptr %196, ptr %14, align 8
  br label %197

197:                                              ; preds = %193, %189
  br label %226

198:                                              ; preds = %179
  %199 = load ptr, ptr %25, align 8
  store ptr %199, ptr %26, align 8
  %200 = load ptr, ptr %26, align 8
  %201 = getelementptr inbounds %struct._xmlNode, ptr %200, i32 0, i32 1
  %202 = load i32, ptr %201, align 8
  %203 = icmp eq i32 %202, 9
  br i1 %203, label %209, label %204

204:                                              ; preds = %198
  %205 = load ptr, ptr %26, align 8
  %206 = getelementptr inbounds %struct._xmlNode, ptr %205, i32 0, i32 1
  %207 = load i32, ptr %206, align 8
  %208 = icmp eq i32 %207, 13
  br i1 %208, label %209, label %212

209:                                              ; preds = %204, %198
  %210 = load ptr, ptr %26, align 8
  %211 = call ptr @xmlDocGetRootElement(ptr noundef %210)
  store ptr %211, ptr %26, align 8
  br label %216

212:                                              ; preds = %204
  %213 = load ptr, ptr %26, align 8
  %214 = getelementptr inbounds %struct._xmlNode, ptr %213, i32 0, i32 3
  %215 = load ptr, ptr %214, align 8
  store ptr %215, ptr %26, align 8
  br label %216

216:                                              ; preds = %212, %209
  %217 = load ptr, ptr %25, align 8
  %218 = load ptr, ptr %26, align 8
  %219 = load ptr, ptr %13, align 8
  %220 = getelementptr inbounds %struct._dom_nnodemap_object, ptr %219, i32 0, i32 6
  %221 = load ptr, ptr %220, align 8
  %222 = load ptr, ptr %13, align 8
  %223 = getelementptr inbounds %struct._dom_nnodemap_object, ptr %222, i32 0, i32 5
  %224 = load ptr, ptr %223, align 8
  %225 = call ptr @dom_get_elements_by_tag_name_ns_raw(ptr noundef %217, ptr noundef %218, ptr noundef %221, ptr noundef %224, ptr noundef %15, i32 noundef 0)
  store ptr %225, ptr %14, align 8
  br label %226

226:                                              ; preds = %216, %197
  br label %227

227:                                              ; preds = %226, %165
  br label %244

228:                                              ; preds = %77, %72
  %229 = load ptr, ptr %13, align 8
  %230 = getelementptr inbounds %struct._dom_nnodemap_object, ptr %229, i32 0, i32 2
  %231 = load i32, ptr %230, align 8
  %232 = icmp eq i32 %231, 6
  br i1 %232, label %233, label %238

233:                                              ; preds = %228
  %234 = load ptr, ptr %13, align 8
  %235 = getelementptr inbounds %struct._dom_nnodemap_object, ptr %234, i32 0, i32 4
  %236 = load ptr, ptr %235, align 8
  %237 = call ptr @php_dom_libxml_hash_iter(ptr noundef %236, i32 noundef 0)
  store ptr %237, ptr %14, align 8
  br label %243

238:                                              ; preds = %228
  %239 = load ptr, ptr %13, align 8
  %240 = getelementptr inbounds %struct._dom_nnodemap_object, ptr %239, i32 0, i32 4
  %241 = load ptr, ptr %240, align 8
  %242 = call ptr @php_dom_libxml_notation_iter(ptr noundef %241, i32 noundef 0)
  store ptr %242, ptr %14, align 8
  br label %243

243:                                              ; preds = %238, %233
  br label %244

244:                                              ; preds = %243, %227
  br label %245

245:                                              ; preds = %244, %62
  br label %246

246:                                              ; preds = %245, %173
  %247 = load ptr, ptr %14, align 8
  %248 = icmp ne ptr %247, null
  br i1 %248, label %249, label %257

249:                                              ; preds = %246
  %250 = load ptr, ptr %14, align 8
  %251 = load ptr, ptr %18, align 8
  %252 = getelementptr inbounds %struct.php_dom_iterator, ptr %251, i32 0, i32 1
  %253 = load ptr, ptr %13, align 8
  %254 = getelementptr inbounds %struct._dom_nnodemap_object, ptr %253, i32 0, i32 0
  %255 = load ptr, ptr %254, align 8
  %256 = call zeroext i1 @php_dom_create_object(ptr noundef %250, ptr noundef %252, ptr noundef %255)
  br label %257

257:                                              ; preds = %249, %246
  %258 = load ptr, ptr %18, align 8
  %259 = getelementptr inbounds %struct.php_dom_iterator, ptr %258, i32 0, i32 0
  store ptr %259, ptr %8, align 8
  br label %260

260:                                              ; preds = %257, %29
  %261 = load ptr, ptr %8, align 8
  ret ptr %261
}