; Function Attrs: nounwind uwtable
define hidden noundef ptr @php_dom_get_iterator(ptr nocapture noundef readnone %0, ptr nocapture noundef readonly %1, i32 noundef %2) local_unnamed_addr #0 {
  %4 = alloca i32, align 4
  store i32 0, ptr %4, align 4
  %.not = icmp eq i32 %2, 0
  br i1 %.not, label %6, label %5

5:                                                ; preds = %3
  tail call void (ptr, ptr, ...) @zend_throw_error(ptr noundef null, ptr noundef nonnull @.str) #8
  br label %php_dom_libxml_hash_iter.exit.thread

6:                                                ; preds = %3
  %7 = tail call noalias ptr @_emalloc_128() #8
  tail call void @zend_iterator_init(ptr noundef %7) #8
  %8 = getelementptr inbounds i8, ptr %7, i64 112
  store i64 0, ptr %8, align 8
  %9 = getelementptr inbounds i8, ptr %7, i64 56
  %10 = load ptr, ptr %1, align 8
  %11 = load i32, ptr %10, align 4
  %12 = add i32 %11, 1
  store i32 %12, ptr %10, align 4
  store ptr %10, ptr %9, align 8
  %13 = getelementptr inbounds i8, ptr %7, i64 64
  store i32 776, ptr %13, align 8
  %14 = getelementptr inbounds i8, ptr %7, i64 72
  store ptr @php_dom_iterator_funcs, ptr %14, align 8
  %15 = getelementptr inbounds i8, ptr %7, i64 88
  %16 = getelementptr inbounds i8, ptr %7, i64 96
  store i32 0, ptr %16, align 8
  %17 = load ptr, ptr %1, align 8
  %18 = getelementptr inbounds i8, ptr %17, i64 -24
  %19 = load ptr, ptr %18, align 8
  %.not73 = icmp eq ptr %19, null
  br i1 %.not73, label %php_dom_libxml_hash_iter.exit.thread, label %20

20:                                               ; preds = %6
  %21 = getelementptr inbounds i8, ptr %19, i64 24
  %22 = load i32, ptr %21, align 8
  switch i32 %22, label %48 [
    i32 19, label %23
    i32 6, label %75
    i32 12, label %84
  ]

23:                                               ; preds = %20
  %24 = getelementptr inbounds i8, ptr %19, i64 8
  %25 = getelementptr inbounds i8, ptr %19, i64 16
  %26 = load i8, ptr %25, align 8
  switch i8 %26, label %36 [
    i8 7, label %27
    i8 8, label %29
  ]

27:                                               ; preds = %23
  %28 = load ptr, ptr %24, align 8
  br label %36

29:                                               ; preds = %23
  %30 = load ptr, ptr %24, align 8
  %31 = getelementptr inbounds i8, ptr %30, i64 24
  %32 = load ptr, ptr %31, align 8
  %33 = getelementptr inbounds i8, ptr %32, i64 104
  %34 = load ptr, ptr %33, align 8
  %35 = tail call ptr %34(ptr noundef %30) #8
  br label %36

36:                                               ; preds = %23, %29, %27
  %37 = phi ptr [ %28, %27 ], [ %35, %29 ], [ null, %23 ]
  %38 = getelementptr inbounds i8, ptr %7, i64 104
  tail call void @zend_hash_internal_pointer_reset_ex(ptr noundef %37, ptr noundef nonnull %38) #8
  %39 = tail call ptr @zend_hash_get_current_data_ex(ptr noundef %37, ptr noundef nonnull %38) #8
  %.not77 = icmp eq ptr %39, null
  br i1 %.not77, label %php_dom_libxml_hash_iter.exit.thread, label %40

40:                                               ; preds = %36
  %41 = load ptr, ptr %39, align 8
  %42 = getelementptr inbounds i8, ptr %39, i64 8
  %43 = load i32, ptr %42, align 8
  store ptr %41, ptr %15, align 8
  store i32 %43, ptr %16, align 8
  %44 = and i32 %43, 65280
  %.not78 = icmp eq i32 %44, 0
  br i1 %.not78, label %php_dom_libxml_hash_iter.exit.thread, label %45

45:                                               ; preds = %40
  %46 = load i32, ptr %41, align 4
  %47 = add i32 %46, 1
  store i32 %47, ptr %41, align 4
  br label %php_dom_libxml_hash_iter.exit.thread

48:                                               ; preds = %20
  %49 = load ptr, ptr %19, align 8
  %50 = tail call ptr @dom_object_get_node(ptr noundef %49) #8
  %.not76 = icmp eq ptr %50, null
  br i1 %.not76, label %php_dom_libxml_hash_iter.exit.thread, label %51

51:                                               ; preds = %48
  %52 = load i32, ptr %21, align 8
  %.off = add i32 %52, -1
  %switch = icmp ult i32 %.off, 2
  br i1 %switch, label %53, label %61

53:                                               ; preds = %51
  %54 = icmp eq i32 %52, 2
  br i1 %54, label %55, label %58

55:                                               ; preds = %53
  %56 = getelementptr inbounds i8, ptr %50, i64 88
  %57 = load ptr, ptr %56, align 8
  br label %php_dom_libxml_hash_iter.exit

58:                                               ; preds = %53
  %59 = getelementptr inbounds i8, ptr %50, i64 24
  %60 = load ptr, ptr %59, align 8
  br label %php_dom_libxml_hash_iter.exit

61:                                               ; preds = %51
  %62 = getelementptr inbounds i8, ptr %50, i64 8
  %63 = load i32, ptr %62, align 8
  switch i32 %63, label %66 [
    i32 9, label %64
    i32 13, label %64
  ]

64:                                               ; preds = %61, %61
  %65 = tail call ptr @xmlDocGetRootElement(ptr noundef nonnull %50) #8
  br label %69

66:                                               ; preds = %61
  %67 = getelementptr inbounds i8, ptr %50, i64 24
  %68 = load ptr, ptr %67, align 8
  br label %69

69:                                               ; preds = %66, %64
  %.0 = phi ptr [ %65, %64 ], [ %68, %66 ]
  %70 = getelementptr inbounds i8, ptr %19, i64 48
  %71 = load ptr, ptr %70, align 8
  %72 = getelementptr inbounds i8, ptr %19, i64 40
  %73 = load ptr, ptr %72, align 8
  %74 = call ptr @dom_get_elements_by_tag_name_ns_raw(ptr noundef nonnull %50, ptr noundef %.0, ptr noundef %71, ptr noundef %73, ptr noundef nonnull %4, i32 noundef 0) #8
  br label %php_dom_libxml_hash_iter.exit

75:                                               ; preds = %20
  %76 = getelementptr inbounds i8, ptr %19, i64 32
  %77 = load ptr, ptr %76, align 8
  %78 = tail call i32 @xmlHashSize(ptr noundef %77) #8
  %79 = icmp sgt i32 %78, 0
  br i1 %79, label %80, label %php_dom_libxml_hash_iter.exit.thread

80:                                               ; preds = %75
  %81 = tail call noalias ptr @_emalloc_16() #8
  %82 = getelementptr inbounds i8, ptr %81, i64 8
  tail call void @llvm.memset.p0.i64(ptr noundef nonnull align 8 dereferenceable(16) %81, i8 0, i64 16, i1 false)
  tail call void @xmlHashScan(ptr noundef %77, ptr noundef nonnull @itemHashScanner, ptr noundef nonnull %81) #8
  %83 = load ptr, ptr %82, align 8
  tail call void @_efree(ptr noundef nonnull %81) #8
  br label %php_dom_libxml_hash_iter.exit

84:                                               ; preds = %20
  %85 = getelementptr inbounds i8, ptr %19, i64 32
  %86 = load ptr, ptr %85, align 8
  %87 = tail call ptr @php_dom_libxml_notation_iter(ptr noundef %86, i32 noundef 0)
  br label %php_dom_libxml_hash_iter.exit

php_dom_libxml_hash_iter.exit:                    ; preds = %80, %84, %55, %58, %69
  %.065 = phi ptr [ %57, %55 ], [ %60, %58 ], [ %74, %69 ], [ %87, %84 ], [ %83, %80 ]
  %.not79 = icmp eq ptr %.065, null
  br i1 %.not79, label %php_dom_libxml_hash_iter.exit.thread, label %88

88:                                               ; preds = %php_dom_libxml_hash_iter.exit
  %89 = load ptr, ptr %19, align 8
  %90 = call zeroext i1 @php_dom_create_object(ptr noundef nonnull %.065, ptr noundef nonnull %15, ptr noundef %89) #8
  br label %php_dom_libxml_hash_iter.exit.thread

php_dom_libxml_hash_iter.exit.thread:             ; preds = %75, %6, %48, %36, %40, %45, %php_dom_libxml_hash_iter.exit, %88, %5
  %.064 = phi ptr [ null, %5 ], [ %7, %88 ], [ %7, %php_dom_libxml_hash_iter.exit ], [ %7, %45 ], [ %7, %40 ], [ %7, %36 ], [ %7, %48 ], [ %7, %6 ], [ %7, %75 ]
  ret ptr %.064
}